target datalayout = "e-m:e-p270:32:32-p271:32:32-p272:64:64-i64:64-i128:128-f80:128-n8:16:32:64-S128"
target triple = "x86_64-pc-linux-gnu"

%"struct.cv::detail::CheckContext" = type { ptr, ptr, i32, i32, ptr, ptr, ptr }

@_ZZNK2cv11TiffDecoder23normalizeChannelsNumberEiE15__cv_check__146 = internal constant %"struct.cv::detail::CheckContext" { ptr @.str, ptr @.str.1, i32 146, i32 0, ptr @.str.2, ptr @.str.3, ptr @.str.4 }, align 8

; Function Attrs: mustprogress uwtable
define hidden noundef i32 @_ZNK2cv11TiffDecoder23normalizeChannelsNumberEi(ptr noundef nonnull align 8 dereferenceable(400) %0, i32 noundef %1) #4 align 2 {
  %3 = alloca ptr, align 8
  %4 = alloca i32, align 4
  store ptr %0, ptr %3, align 8, !tbaa !3
  store i32 %1, ptr %4, align 4, !tbaa !68
  br label %5

5:                                                ; preds = %2
  %6 = load i32, ptr %4, align 4, !tbaa !68
  %7 = icmp sge i32 %6, 1
  br i1 %7, label %8, label %12

8:                                                ; preds = %5
  %9 = load i32, ptr %4, align 4, !tbaa !68
  %10 = icmp sle i32 %9, 4
  br i1 %10, label %11, label %12

11:                                               ; preds = %8
  br label %14

12:                                               ; preds = %8, %5
  %13 = load i32, ptr %4, align 4, !tbaa !68
  call void @_ZN2cv6detail17check_failed_autoEiRKNS0_12CheckContextE(i32 noundef %13, ptr noundef nonnull align 8 dereferenceable(48) @_ZZNK2cv11TiffDecoder23normalizeChannelsNumberEiE15__cv_check__146) #24
  unreachable

14:                                               ; preds = %11
  br label %15

15:                                               ; preds = %14
  %16 = load i32, ptr %4, align 4, !tbaa !68
  ret i32 %16
}