; Function Attrs: mustprogress uwtable
define hidden noundef range(i32 1, 5) i32 @_ZNK2cv11TiffDecoder23normalizeChannelsNumberEi(ptr noundef nonnull readnone align 8 captures(none) dereferenceable(400) %0, i32 noundef returned %1) local_unnamed_addr #3 align 2 {
  %3 = add i32 %1, -1
  %or.cond = icmp ult i32 %3, 4
  br i1 %or.cond, label %5, label %4

4:                                                ; preds = %2
  tail call void @_ZN2cv6detail17check_failed_autoEiRKNS0_12CheckContextE(i32 noundef %1, ptr noundef nonnull align 8 dereferenceable(48) @_ZZNK2cv11TiffDecoder23normalizeChannelsNumberEiE15__cv_check__146) #26
  unreachable

5:                                                ; preds = %2
  ret i32 %1
}